; Function Attrs: null_pointer_is_valid sspstrong uwtable
define internal i32 @dissect_openflow_v4(ptr noundef %0, ptr noundef %1, ptr noundef %2, ptr readnone captures(none) %3) #0 {
  %5 = tail call zeroext i8 @tvb_get_uint8(ptr noundef %0, i32 noundef 1)
  %6 = getelementptr inbounds nuw i8, ptr %1, i64 8
  %7 = load ptr, ptr %6, align 8
  %8 = zext i8 %5 to i32
  %9 = tail call ptr @val_to_str_ext_const(i32 noundef %8, ptr noundef nonnull @openflow_v4_type_values_ext, ptr noundef nonnull @.str.1116)
  tail call void (ptr, i32, ptr, ...) @col_append_fstr(ptr noundef %7, i32 noundef 25, ptr noundef nonnull @.str.1115, ptr noundef %9)
  %10 = load i32, ptr @proto_openflow_v4, align 4
  %11 = tail call ptr @proto_tree_add_item(ptr noundef %2, i32 noundef %10, ptr noundef %0, i32 noundef 0, i32 noundef -1, i32 noundef 0)
  %12 = load i32, ptr @ett_openflow_v4, align 4
  %13 = tail call ptr @proto_item_add_subtree(ptr noundef %11, i32 noundef %12)
  tail call fastcc void @dissect_openflow_message_v4(ptr noundef %0, ptr noundef %1, ptr noundef %13, i32 noundef 0)
  %14 = tail call i32 @tvb_reported_length(ptr noundef %0)
  ret i32 %14
}